target datalayout = "e-m:e-p270:32:32-p271:32:32-p272:64:64-i64:64-i128:128-f80:128-n8:16:32:64-S128"
target triple = "x86_64-pc-linux-gnu"

; Function Attrs: inlinehint nounwind uwtable
define internal void @yuvPlanartoyuy2_c(ptr noundef %0, ptr noundef %1, ptr noundef %2, ptr noundef %3, i32 noundef %4, i32 noundef %5, i32 noundef %6, i32 noundef %7, i32 noundef %8, i32 noundef %9) #4 {
  %11 = alloca ptr, align 8
  %12 = alloca ptr, align 8
  %13 = alloca ptr, align 8
  %14 = alloca ptr, align 8
  %15 = alloca i32, align 4
  %16 = alloca i32, align 4
  %17 = alloca i32, align 4
  %18 = alloca i32, align 4
  %19 = alloca i32, align 4
  %20 = alloca i32, align 4
  %21 = alloca i32, align 4
  %22 = alloca i32, align 4
  %23 = alloca i32, align 4
  %24 = alloca ptr, align 8
  %25 = alloca ptr, align 8
  %26 = alloca ptr, align 8
  %27 = alloca ptr, align 8
  store ptr %0, ptr %11, align 8, !tbaa !4
  store ptr %1, ptr %12, align 8, !tbaa !4
  store ptr %2, ptr %13, align 8, !tbaa !4
  store ptr %3, ptr %14, align 8, !tbaa !4
  store i32 %4, ptr %15, align 4, !tbaa !9
  store i32 %5, ptr %16, align 4, !tbaa !9
  store i32 %6, ptr %17, align 4, !tbaa !9
  store i32 %7, ptr %18, align 4, !tbaa !9
  store i32 %8, ptr %19, align 4, !tbaa !9
  store i32 %9, ptr %20, align 4, !tbaa !9
  call void @llvm.lifetime.start.p0(i64 4, ptr %21) #5
  call void @llvm.lifetime.start.p0(i64 4, ptr %22) #5
  call void @llvm.lifetime.start.p0(i64 4, ptr %23) #5
  %28 = load i32, ptr %15, align 4, !tbaa !9
  %29 = ashr i32 %28, 1
  store i32 %29, ptr %23, align 4, !tbaa !9
  store i32 0, ptr %21, align 4, !tbaa !9
  br label %30

30:                                               ; preds = %103, %10
  %31 = load i32, ptr %21, align 4, !tbaa !9
  %32 = load i32, ptr %16, align 4, !tbaa !9
  %33 = icmp slt i32 %31, %32
  br i1 %33, label %34, label %106

34:                                               ; preds = %30
  call void @llvm.lifetime.start.p0(i64 8, ptr %24) #5
  %35 = load ptr, ptr %14, align 8, !tbaa !4
  store ptr %35, ptr %24, align 8, !tbaa !11
  call void @llvm.lifetime.start.p0(i64 8, ptr %25) #5
  %36 = load ptr, ptr %11, align 8, !tbaa !4
  store ptr %36, ptr %25, align 8, !tbaa !4
  call void @llvm.lifetime.start.p0(i64 8, ptr %26) #5
  %37 = load ptr, ptr %12, align 8, !tbaa !4
  store ptr %37, ptr %26, align 8, !tbaa !4
  call void @llvm.lifetime.start.p0(i64 8, ptr %27) #5
  %38 = load ptr, ptr %13, align 8, !tbaa !4
  store ptr %38, ptr %27, align 8, !tbaa !4
  store i32 0, ptr %22, align 4, !tbaa !9
  br label %39

39:                                               ; preds = %74, %34
  %40 = load i32, ptr %22, align 4, !tbaa !9
  %41 = load i32, ptr %23, align 4, !tbaa !9
  %42 = icmp slt i32 %40, %41
  br i1 %42, label %43, label %77

43:                                               ; preds = %39
  %44 = load ptr, ptr %25, align 8, !tbaa !4
  %45 = getelementptr inbounds i8, ptr %44, i64 0
  %46 = load i8, ptr %45, align 1, !tbaa !13
  %47 = zext i8 %46 to i32
  %48 = load ptr, ptr %26, align 8, !tbaa !4
  %49 = getelementptr inbounds i8, ptr %48, i64 0
  %50 = load i8, ptr %49, align 1, !tbaa !13
  %51 = zext i8 %50 to i32
  %52 = shl i32 %51, 8
  %53 = add nsw i32 %47, %52
  %54 = load ptr, ptr %25, align 8, !tbaa !4
  %55 = getelementptr inbounds i8, ptr %54, i64 1
  %56 = load i8, ptr %55, align 1, !tbaa !13
  %57 = zext i8 %56 to i32
  %58 = shl i32 %57, 16
  %59 = add nsw i32 %53, %58
  %60 = load ptr, ptr %27, align 8, !tbaa !4
  %61 = getelementptr inbounds i8, ptr %60, i64 0
  %62 = load i8, ptr %61, align 1, !tbaa !13
  %63 = zext i8 %62 to i32
  %64 = shl i32 %63, 24
  %65 = add nsw i32 %59, %64
  %66 = load ptr, ptr %24, align 8, !tbaa !11
  %67 = getelementptr inbounds nuw i32, ptr %66, i32 1
  store ptr %67, ptr %24, align 8, !tbaa !11
  store i32 %65, ptr %66, align 4, !tbaa !9
  %68 = load ptr, ptr %25, align 8, !tbaa !4
  %69 = getelementptr inbounds i8, ptr %68, i64 2
  store ptr %69, ptr %25, align 8, !tbaa !4
  %70 = load ptr, ptr %26, align 8, !tbaa !4
  %71 = getelementptr inbounds nuw i8, ptr %70, i32 1
  store ptr %71, ptr %26, align 8, !tbaa !4
  %72 = load ptr, ptr %27, align 8, !tbaa !4
  %73 = getelementptr inbounds nuw i8, ptr %72, i32 1
  store ptr %73, ptr %27, align 8, !tbaa !4
  br label %74

74:                                               ; preds = %43
  %75 = load i32, ptr %22, align 4, !tbaa !9
  %76 = add nsw i32 %75, 1
  store i32 %76, ptr %22, align 4, !tbaa !9
  br label %39, !llvm.loop !99

77:                                               ; preds = %39
  %78 = load i32, ptr %21, align 4, !tbaa !9
  %79 = load i32, ptr %20, align 4, !tbaa !9
  %80 = sub nsw i32 %79, 1
  %81 = and i32 %78, %80
  %82 = load i32, ptr %20, align 4, !tbaa !9
  %83 = sub nsw i32 %82, 1
  %84 = icmp eq i32 %81, %83
  br i1 %84, label %85, label %94

85:                                               ; preds = %77
  %86 = load i32, ptr %18, align 4, !tbaa !9
  %87 = load ptr, ptr %12, align 8, !tbaa !4
  %88 = sext i32 %86 to i64
  %89 = getelementptr inbounds i8, ptr %87, i64 %88
  store ptr %89, ptr %12, align 8, !tbaa !4
  %90 = load i32, ptr %18, align 4, !tbaa !9
  %91 = load ptr, ptr %13, align 8, !tbaa !4
  %92 = sext i32 %90 to i64
  %93 = getelementptr inbounds i8, ptr %91, i64 %92
  store ptr %93, ptr %13, align 8, !tbaa !4
  br label %94

94:                                               ; preds = %85, %77
  %95 = load i32, ptr %17, align 4, !tbaa !9
  %96 = load ptr, ptr %11, align 8, !tbaa !4
  %97 = sext i32 %95 to i64
  %98 = getelementptr inbounds i8, ptr %96, i64 %97
  store ptr %98, ptr %11, align 8, !tbaa !4
  %99 = load i32, ptr %19, align 4, !tbaa !9
  %100 = load ptr, ptr %14, align 8, !tbaa !4
  %101 = sext i32 %99 to i64
  %102 = getelementptr inbounds i8, ptr %100, i64 %101
  store ptr %102, ptr %14, align 8, !tbaa !4
  call void @llvm.lifetime.end.p0(i64 8, ptr %27) #5
  call void @llvm.lifetime.end.p0(i64 8, ptr %26) #5
  call void @llvm.lifetime.end.p0(i64 8, ptr %25) #5
  call void @llvm.lifetime.end.p0(i64 8, ptr %24) #5
  br label %103

103:                                              ; preds = %94
  %104 = load i32, ptr %21, align 4, !tbaa !9
  %105 = add nsw i32 %104, 1
  store i32 %105, ptr %21, align 4, !tbaa !9
  br label %30, !llvm.loop !100

106:                                              ; preds = %30
  call void @llvm.lifetime.end.p0(i64 4, ptr %23) #5
  call void @llvm.lifetime.end.p0(i64 4, ptr %22) #5
  call void @llvm.lifetime.end.p0(i64 4, ptr %21) #5
  ret void
}

; Function Attrs: inlinehint nounwind uwtable
define internal void @yv12toyuy2_c(ptr noundef %0, ptr noundef %1, ptr noundef %2, ptr noundef %3, i32 noundef %4, i32 noundef %5, i32 noundef %6, i32 noundef %7, i32 noundef %8) #4 {
  %10 = alloca ptr, align 8
  %11 = alloca ptr, align 8
  %12 = alloca ptr, align 8
  %13 = alloca ptr, align 8
  %14 = alloca i32, align 4
  %15 = alloca i32, align 4
  %16 = alloca i32, align 4
  %17 = alloca i32, align 4
  %18 = alloca i32, align 4
  store ptr %0, ptr %10, align 8, !tbaa !4
  store ptr %1, ptr %11, align 8, !tbaa !4
  store ptr %2, ptr %12, align 8, !tbaa !4
  store ptr %3, ptr %13, align 8, !tbaa !4
  store i32 %4, ptr %14, align 4, !tbaa !9
  store i32 %5, ptr %15, align 4, !tbaa !9
  store i32 %6, ptr %16, align 4, !tbaa !9
  store i32 %7, ptr %17, align 4, !tbaa !9
  store i32 %8, ptr %18, align 4, !tbaa !9
  %19 = load ptr, ptr %10, align 8, !tbaa !4
  %20 = load ptr, ptr %11, align 8, !tbaa !4
  %21 = load ptr, ptr %12, align 8, !tbaa !4
  %22 = load ptr, ptr %13, align 8, !tbaa !4
  %23 = load i32, ptr %14, align 4, !tbaa !9
  %24 = load i32, ptr %15, align 4, !tbaa !9
  %25 = load i32, ptr %16, align 4, !tbaa !9
  %26 = load i32, ptr %17, align 4, !tbaa !9
  %27 = load i32, ptr %18, align 4, !tbaa !9
  call void @yuvPlanartoyuy2_c(ptr noundef %19, ptr noundef %20, ptr noundef %21, ptr noundef %22, i32 noundef %23, i32 noundef %24, i32 noundef %25, i32 noundef %26, i32 noundef %27, i32 noundef 2)
  ret void
}